; Function Attrs: mustprogress ssp uwtable
define internal noundef zeroext i1 @_ZNSt17_Function_handlerIFvPvEZN6open3d1t8geometry8vtkutils12_GLOBAL__N_134CreateTensorFromVtkDataArrayWorkerclI23vtkAOSDataArrayTemplateIfEEEvPT_EUlS0_E_E10_M_managerERSt9_Any_dataRKSF_St18_Manager_operation(ptr noundef nonnull align 8 captures(none) dereferenceable(16) %0, ptr noundef nonnull readonly align 8 captures(none) dereferenceable(16) %1, i32 noundef %2) #6 align 2 personality ptr @__gxx_personality_v0 {
  switch i32 %2, label %_ZNSt14_Function_base13_Base_managerIZN6open3d1t8geometry8vtkutils12_GLOBAL__N_134CreateTensorFromVtkDataArrayWorkerclI23vtkAOSDataArrayTemplateIfEEEvPT_EUlPvE_E10_M_managerERSt9_Any_dataRKSF_St18_Manager_operation.exit [
    i32 0, label %4
    i32 1, label %5
    i32 3, label %10
    i32 2, label %6
  ]

4:                                                ; preds = %3
  store ptr @_ZTIZN6open3d1t8geometry8vtkutils12_GLOBAL__N_134CreateTensorFromVtkDataArrayWorkerclI23vtkAOSDataArrayTemplateIfEEEvPT_EUlPvE_, ptr %0, align 8, !tbaa !771
  br label %_ZNSt14_Function_base13_Base_managerIZN6open3d1t8geometry8vtkutils12_GLOBAL__N_134CreateTensorFromVtkDataArrayWorkerclI23vtkAOSDataArrayTemplateIfEEEvPT_EUlPvE_E10_M_managerERSt9_Any_dataRKSF_St18_Manager_operation.exit

5:                                                ; preds = %3
  %.val = load ptr, ptr %1, align 8, !tbaa !62
  store ptr %.val, ptr %0, align 8, !tbaa !62
  br label %_ZNSt14_Function_base13_Base_managerIZN6open3d1t8geometry8vtkutils12_GLOBAL__N_134CreateTensorFromVtkDataArrayWorkerclI23vtkAOSDataArrayTemplateIfEEEvPT_EUlPvE_E10_M_managerERSt9_Any_dataRKSF_St18_Manager_operation.exit

6:                                                ; preds = %3
  %.val6 = load ptr, ptr %1, align 8
  %7 = tail call noalias noundef nonnull dereferenceable(8) ptr @_Znwm(i64 noundef 8) #37
  invoke void @_ZN19vtkSmartPointerBaseC2ERKS_(ptr noundef nonnull align 8 dereferenceable(8) %7, ptr noundef nonnull align 8 dereferenceable(8) %.val6)
          to label %_ZNSt14_Function_base13_Base_managerIZN6open3d1t8geometry8vtkutils12_GLOBAL__N_134CreateTensorFromVtkDataArrayWorkerclI23vtkAOSDataArrayTemplateIfEEEvPT_EUlPvE_E15_M_init_functorIRKSD_EEvRSt9_Any_dataOSA_.exit.i unwind label %8

8:                                                ; preds = %6
  %9 = landingpad { ptr, i32 }
          cleanup
  tail call void @_ZdlPvm(ptr noundef nonnull %7, i64 noundef 8) #35
  resume { ptr, i32 } %9

_ZNSt14_Function_base13_Base_managerIZN6open3d1t8geometry8vtkutils12_GLOBAL__N_134CreateTensorFromVtkDataArrayWorkerclI23vtkAOSDataArrayTemplateIfEEEvPT_EUlPvE_E15_M_init_functorIRKSD_EEvRSt9_Any_dataOSA_.exit.i: ; preds = %6
  store ptr %7, ptr %0, align 8, !tbaa !62
  br label %_ZNSt14_Function_base13_Base_managerIZN6open3d1t8geometry8vtkutils12_GLOBAL__N_134CreateTensorFromVtkDataArrayWorkerclI23vtkAOSDataArrayTemplateIfEEEvPT_EUlPvE_E10_M_managerERSt9_Any_dataRKSF_St18_Manager_operation.exit

10:                                               ; preds = %3
  %.val7.i = load ptr, ptr %0, align 8, !tbaa !62
  %11 = icmp eq ptr %.val7.i, null
  br i1 %11, label %_ZNSt14_Function_base13_Base_managerIZN6open3d1t8geometry8vtkutils12_GLOBAL__N_134CreateTensorFromVtkDataArrayWorkerclI23vtkAOSDataArrayTemplateIfEEEvPT_EUlPvE_E10_M_managerERSt9_Any_dataRKSF_St18_Manager_operation.exit, label %12

12:                                               ; preds = %10
  tail call void @_ZN19vtkSmartPointerBaseD2Ev(ptr noundef nonnull align 8 dereferenceable(8) %.val7.i) #38
  tail call void @_ZdlPvm(ptr noundef nonnull %.val7.i, i64 noundef 8) #35
  br label %_ZNSt14_Function_base13_Base_managerIZN6open3d1t8geometry8vtkutils12_GLOBAL__N_134CreateTensorFromVtkDataArrayWorkerclI23vtkAOSDataArrayTemplateIfEEEvPT_EUlPvE_E10_M_managerERSt9_Any_dataRKSF_St18_Manager_operation.exit

_ZNSt14_Function_base13_Base_managerIZN6open3d1t8geometry8vtkutils12_GLOBAL__N_134CreateTensorFromVtkDataArrayWorkerclI23vtkAOSDataArrayTemplateIfEEEvPT_EUlPvE_E10_M_managerERSt9_Any_dataRKSF_St18_Manager_operation.exit: ; preds = %3, %12, %10, %_ZNSt14_Function_base13_Base_managerIZN6open3d1t8geometry8vtkutils12_GLOBAL__N_134CreateTensorFromVtkDataArrayWorkerclI23vtkAOSDataArrayTemplateIfEEEvPT_EUlPvE_E15_M_init_functorIRKSD_EEvRSt9_Any_dataOSA_.exit.i, %5, %4
  ret i1 false
}